target datalayout = "e-m:e-p270:32:32-p271:32:32-p272:64:64-i64:64-i128:128-f80:128-n8:16:32:64-S128"
target triple = "x86_64-unknown-linux-gnu"

%struct.QEMUIOVector = type { ptr, i32, %union.anon.13 }
%union.anon.13 = type { %struct.anon.14 }
%struct.anon.14 = type { i32, %struct.iovec }
%struct.iovec = type { ptr, i64 }

; Function Attrs: nounwind sspstrong uwtable
define dso_local i32 @bdrv_load_vmstate(ptr noundef %bs, ptr noundef %buf, i64 noundef %pos, i32 noundef %size) #0 {
entry:
  %bs.addr = alloca ptr, align 8
  %buf.addr = alloca ptr, align 8
  %pos.addr = alloca i64, align 8
  %size.addr = alloca i32, align 4
  %qiov = alloca %struct.QEMUIOVector, align 8
  %ret = alloca i32, align 4
  store ptr %bs, ptr %bs.addr, align 8
  store ptr %buf, ptr %buf.addr, align 8
  store i64 %pos, ptr %pos.addr, align 8
  store i32 %size, ptr %size.addr, align 4
  %iov = getelementptr inbounds %struct.QEMUIOVector, ptr %qiov, i32 0, i32 0
  %0 = getelementptr inbounds %struct.QEMUIOVector, ptr %qiov, i32 0, i32 2
  %local_iov = getelementptr inbounds %struct.anon.14, ptr %0, i32 0, i32 1
  store ptr %local_iov, ptr %iov, align 8
  %niov = getelementptr inbounds %struct.QEMUIOVector, ptr %qiov, i32 0, i32 1
  store i32 1, ptr %niov, align 8
  %1 = getelementptr inbounds %struct.QEMUIOVector, ptr %qiov, i32 0, i32 2
  %nalloc = getelementptr inbounds %struct.anon.14, ptr %1, i32 0, i32 0
  store i32 -1, ptr %nalloc, align 8
  %local_iov1 = getelementptr inbounds %struct.anon.14, ptr %1, i32 0, i32 1
  %iov_base = getelementptr inbounds %struct.iovec, ptr %local_iov1, i32 0, i32 0
  %2 = load ptr, ptr %buf.addr, align 8
  store ptr %2, ptr %iov_base, align 8
  %iov_len = getelementptr inbounds %struct.iovec, ptr %local_iov1, i32 0, i32 1
  %3 = load i32, ptr %size.addr, align 4
  %conv = sext i32 %3 to i64
  store i64 %conv, ptr %iov_len, align 8
  %4 = load ptr, ptr %bs.addr, align 8
  %5 = load i64, ptr %pos.addr, align 8
  %call = call i32 @bdrv_readv_vmstate(ptr noundef %4, ptr noundef %qiov, i64 noundef %5)
  store i32 %call, ptr %ret, align 4
  br label %do.body

do.body:                                          ; preds = %entry
  br label %do.end

do.end:                                           ; preds = %do.body
  %6 = load i32, ptr %ret, align 4
  %cmp = icmp slt i32 %6, 0
  br i1 %cmp, label %cond.true, label %cond.false

cond.true:                                        ; preds = %do.end
  %7 = load i32, ptr %ret, align 4
  br label %cond.end

cond.false:                                       ; preds = %do.end
  %8 = load i32, ptr %size.addr, align 4
  br label %cond.end

cond.end:                                         ; preds = %cond.false, %cond.true
  %cond = phi i32 [ %7, %cond.true ], [ %8, %cond.false ]
  ret i32 %cond
}