; Function Attrs: nounwind sspstrong uwtable
define dso_local i32 @bdrv_load_vmstate(ptr noundef %bs, ptr noundef %buf, i64 noundef %pos, i32 noundef %size) local_unnamed_addr #0 {
entry:
  %qiov = alloca %struct.QEMUIOVector, align 8
  %0 = getelementptr inbounds nuw i8, ptr %qiov, i64 16
  %local_iov = getelementptr inbounds nuw i8, ptr %qiov, i64 24
  store ptr %local_iov, ptr %qiov, align 8
  %niov = getelementptr inbounds nuw i8, ptr %qiov, i64 8
  store i32 1, ptr %niov, align 8
  store i32 -1, ptr %0, align 8
  store ptr %buf, ptr %local_iov, align 8
  %iov_len = getelementptr inbounds nuw i8, ptr %qiov, i64 32
  %conv = sext i32 %size to i64
  store i64 %conv, ptr %iov_len, align 8
  %call = call i32 @bdrv_readv_vmstate(ptr noundef %bs, ptr noundef nonnull %qiov, i64 noundef %pos) #15
  %cmp = icmp slt i32 %call, 0
  %cond = select i1 %cmp, i32 %call, i32 %size
  ret i32 %cond
}